target datalayout = "e-m:e-p270:32:32-p271:32:32-p272:64:64-i64:64-i128:128-f80:128-n8:16:32:64-S128"
target triple = "x86_64-pc-linux-gnu"

%struct.quic_cid = type { i8, [20 x i8], [16 x i8], i8, i64, i64 }

@quic_handle = internal global ptr null, align 8
@quic_cid_lengths = internal global i32 0, align 4

; Function Attrs: inlinehint nounwind null_pointer_is_valid sspstrong uwtable
define internal zeroext i8 @quic_draft_version(i32 noundef %0) #10 {
  %2 = alloca i8, align 1
  %3 = alloca i32, align 4
  store i32 %0, ptr %3, align 4
  %4 = load i32, ptr %3, align 4
  %5 = lshr i32 %4, 8
  %6 = icmp eq i32 %5, 16711680
  br i1 %6, label %7, label %10

7:                                                ; preds = %1
  %8 = load i32, ptr %3, align 4
  %9 = trunc i32 %8 to i8
  store i8 %9, ptr %2, align 1
  br label %45

10:                                               ; preds = %1
  %11 = load i32, ptr %3, align 4
  %12 = icmp eq i32 %11, -87117823
  br i1 %12, label %13, label %14

13:                                               ; preds = %10
  store i8 22, ptr %2, align 1
  br label %45

14:                                               ; preds = %10
  %15 = load i32, ptr %3, align 4
  %16 = icmp eq i32 %15, -87117822
  br i1 %16, label %20, label %17

17:                                               ; preds = %14
  %18 = load i32, ptr %3, align 4
  %19 = icmp eq i32 %18, -87117810
  br i1 %19, label %20, label %21

20:                                               ; preds = %17, %14
  store i8 27, ptr %2, align 1
  br label %45

21:                                               ; preds = %17
  %22 = load i32, ptr %3, align 4
  %23 = icmp eq i32 %22, 1362113840
  br i1 %23, label %30, label %24

24:                                               ; preds = %21
  %25 = load i32, ptr %3, align 4
  %26 = icmp eq i32 %25, 1412445488
  br i1 %26, label %30, label %27

27:                                               ; preds = %24
  %28 = load i32, ptr %3, align 4
  %29 = icmp eq i32 %28, 1412445489
  br i1 %29, label %30, label %31

30:                                               ; preds = %27, %24, %21
  store i8 27, ptr %2, align 1
  br label %45

31:                                               ; preds = %27
  %32 = load i32, ptr %3, align 4
  %33 = and i32 %32, 252645135
  %34 = icmp eq i32 %33, 168430090
  br i1 %34, label %35, label %36

35:                                               ; preds = %31
  store i8 34, ptr %2, align 1
  br label %45

36:                                               ; preds = %31
  %37 = load i32, ptr %3, align 4
  %38 = icmp eq i32 %37, 1
  br i1 %38, label %39, label %40

39:                                               ; preds = %36
  store i8 34, ptr %2, align 1
  br label %45

40:                                               ; preds = %36
  %41 = load i32, ptr %3, align 4
  %42 = icmp eq i32 %41, 1798521807
  br i1 %42, label %43, label %44

43:                                               ; preds = %40
  store i8 100, ptr %2, align 1
  br label %45

44:                                               ; preds = %40
  store i8 0, ptr %2, align 1
  br label %45

45:                                               ; preds = %44, %43, %39, %35, %30, %20, %13, %7
  %46 = load i8, ptr %2, align 1
  ret i8 %46
}

; Function Attrs: null_pointer_is_valid sspstrong uwtable
define internal zeroext i1 @dissect_quic_short_header_heur(ptr noundef %0, ptr noundef %1, ptr noundef %2) #0 {
  %4 = alloca i1, align 1
  %5 = alloca ptr, align 8
  %6 = alloca ptr, align 8
  %7 = alloca ptr, align 8
  %8 = alloca %struct.quic_cid, align 8
  %9 = alloca i8, align 1
  %10 = alloca i32, align 4
  %11 = alloca ptr, align 8
  store ptr %0, ptr %5, align 8
  store ptr %1, ptr %6, align 8
  store ptr %2, ptr %7, align 8
  %12 = load i32, ptr @quic_cid_lengths, align 4
  %13 = icmp eq i32 %12, 0
  br i1 %13, label %14, label %15

14:                                               ; preds = %3
  store i1 false, ptr %4, align 1
  br label %59

15:                                               ; preds = %3
  %16 = load ptr, ptr %5, align 8
  %17 = call i32 @tvb_captured_length(ptr noundef %16)
  %18 = icmp ult i32 %17, 19
  br i1 %18, label %19, label %20

19:                                               ; preds = %15
  store i1 false, ptr %4, align 1
  br label %59

20:                                               ; preds = %15
  call void @llvm.lifetime.start.p0(i64 56, ptr %8) #19
  call void @llvm.memset.p0.i64(ptr align 8 %8, i8 0, i64 56, i1 false)
  %21 = getelementptr inbounds nuw %struct.quic_cid, ptr %8, i32 0, i32 0
  %22 = load ptr, ptr %5, align 8
  %23 = call i32 @tvb_captured_length(ptr noundef %22)
  %24 = sub i32 %23, 1
  %25 = sub i32 %24, 1
  %26 = sub i32 %25, 16
  %27 = icmp ult i32 20, %26
  br i1 %27, label %28, label %29

28:                                               ; preds = %20
  br label %35

29:                                               ; preds = %20
  %30 = load ptr, ptr %5, align 8
  %31 = call i32 @tvb_captured_length(ptr noundef %30)
  %32 = sub i32 %31, 1
  %33 = sub i32 %32, 1
  %34 = sub i32 %33, 16
  br label %35

35:                                               ; preds = %29, %28
  %36 = phi i32 [ 20, %28 ], [ %34, %29 ]
  %37 = trunc i32 %36 to i8
  store i8 %37, ptr %21, align 8
  %38 = load ptr, ptr %5, align 8
  %39 = getelementptr inbounds nuw %struct.quic_cid, ptr %8, i32 0, i32 1
  %40 = getelementptr inbounds [20 x i8], ptr %39, i64 0, i64 0
  %41 = getelementptr inbounds nuw %struct.quic_cid, ptr %8, i32 0, i32 0
  %42 = load i8, ptr %41, align 8
  %43 = zext i8 %42 to i64
  %44 = call ptr @tvb_memcpy(ptr noundef %38, ptr noundef %40, i32 noundef 1, i64 noundef %43)
  call void @llvm.lifetime.start.p0(i64 1, ptr %9) #19
  %45 = load ptr, ptr %6, align 8
  %46 = call ptr @quic_connection_find(ptr noundef %45, i8 noundef zeroext -1, ptr noundef %8, ptr noundef %9)
  %47 = icmp ne ptr %46, null
  br i1 %47, label %49, label %48

48:                                               ; preds = %35
  store i1 false, ptr %4, align 1
  store i32 1, ptr %10, align 4
  br label %58

49:                                               ; preds = %35
  call void @llvm.lifetime.start.p0(i64 8, ptr %11) #19
  %50 = load ptr, ptr %6, align 8
  %51 = call ptr @find_or_create_conversation(ptr noundef %50)
  store ptr %51, ptr %11, align 8
  %52 = load ptr, ptr %11, align 8
  %53 = load ptr, ptr @quic_handle, align 8
  call void @conversation_set_dissector(ptr noundef %52, ptr noundef %53)
  %54 = load ptr, ptr %5, align 8
  %55 = load ptr, ptr %6, align 8
  %56 = load ptr, ptr %7, align 8
  %57 = call i32 @dissect_quic(ptr noundef %54, ptr noundef %55, ptr noundef %56, ptr noundef null)
  store i1 true, ptr %4, align 1
  store i32 1, ptr %10, align 4
  call void @llvm.lifetime.end.p0(i64 8, ptr %11) #19
  br label %58

58:                                               ; preds = %49, %48
  call void @llvm.lifetime.end.p0(i64 1, ptr %9) #19
  call void @llvm.lifetime.end.p0(i64 56, ptr %8) #19
  br label %59

59:                                               ; preds = %58, %19, %14
  %60 = load i1, ptr %4, align 1
  ret i1 %60
}

; Function Attrs: null_pointer_is_valid sspstrong uwtable
define internal zeroext i1 @dissect_quic_heur(ptr noundef %0, ptr noundef %1, ptr noundef %2, ptr noundef %3) #0 {
  %5 = alloca i1, align 1
  %6 = alloca ptr, align 8
  %7 = alloca ptr, align 8
  %8 = alloca ptr, align 8
  %9 = alloca ptr, align 8
  %10 = alloca ptr, align 8
  %11 = alloca i32, align 4
  %12 = alloca i8, align 1
  %13 = alloca i8, align 1
  %14 = alloca i8, align 1
  %15 = alloca i32, align 4
  %16 = alloca i8, align 1
  %17 = alloca i32, align 4
  store ptr %0, ptr %6, align 8
  store ptr %1, ptr %7, align 8
  store ptr %2, ptr %8, align 8
  store ptr %3, ptr %9, align 8
  call void @llvm.lifetime.start.p0(i64 8, ptr %10) #19
  store ptr null, ptr %10, align 8
  call void @llvm.lifetime.start.p0(i64 4, ptr %11) #19
  store i32 0, ptr %11, align 4
  call void @llvm.lifetime.start.p0(i64 1, ptr %12) #19
  call void @llvm.lifetime.start.p0(i64 1, ptr %13) #19
  call void @llvm.lifetime.start.p0(i64 1, ptr %14) #19
  call void @llvm.lifetime.start.p0(i64 4, ptr %15) #19
  call void @llvm.lifetime.start.p0(i64 1, ptr %16) #19
  store i8 0, ptr %16, align 1
  %18 = load ptr, ptr %6, align 8
  %19 = call i32 @tvb_captured_length(ptr noundef %18)
  %20 = icmp ult i32 %19, 13
  br i1 %20, label %21, label %22

21:                                               ; preds = %4
  store i1 false, ptr %5, align 1
  store i32 1, ptr %17, align 4
  br label %88

22:                                               ; preds = %4
  %23 = load ptr, ptr %6, align 8
  %24 = load i32, ptr %11, align 4
  %25 = call zeroext i8 @tvb_get_uint8(ptr noundef %23, i32 noundef %24)
  store i8 %25, ptr %12, align 1
  %26 = load i8, ptr %12, align 1
  %27 = zext i8 %26 to i32
  %28 = and i32 %27, 128
  %29 = icmp eq i32 %28, 0
  br i1 %29, label %30, label %35

30:                                               ; preds = %22
  %31 = load ptr, ptr %6, align 8
  %32 = load ptr, ptr %7, align 8
  %33 = load ptr, ptr %8, align 8
  %34 = call zeroext i1 @dissect_quic_short_header_heur(ptr noundef %31, ptr noundef %32, ptr noundef %33)
  store i1 %34, ptr %5, align 1
  store i32 1, ptr %17, align 4
  br label %88

35:                                               ; preds = %22
  %36 = load i32, ptr %11, align 4
  %37 = add i32 %36, 1
  store i32 %37, ptr %11, align 4
  %38 = load ptr, ptr %6, align 8
  %39 = load i32, ptr %11, align 4
  %40 = call i32 @tvb_get_ntohl(ptr noundef %38, i32 noundef %39)
  store i32 %40, ptr %15, align 4
  %41 = load i32, ptr %15, align 4
  %42 = call zeroext i8 @quic_draft_version(i32 noundef %41)
  %43 = zext i8 %42 to i32
  %44 = icmp sge i32 %43, 11
  %45 = zext i1 %44 to i8
  store i8 %45, ptr %16, align 1
  %46 = load i8, ptr %16, align 1, !range !6, !noundef !7
  %47 = trunc i8 %46 to i1
  br i1 %47, label %49, label %48

48:                                               ; preds = %35
  store i1 false, ptr %5, align 1
  store i32 1, ptr %17, align 4
  br label %88

49:                                               ; preds = %35
  %50 = load i32, ptr %11, align 4
  %51 = add i32 %50, 4
  store i32 %51, ptr %11, align 4
  %52 = load ptr, ptr %6, align 8
  %53 = load i32, ptr %11, align 4
  %54 = call zeroext i8 @tvb_get_uint8(ptr noundef %52, i32 noundef %53)
  store i8 %54, ptr %13, align 1
  %55 = load i8, ptr %13, align 1
  %56 = zext i8 %55 to i32
  %57 = icmp sgt i32 %56, 20
  br i1 %57, label %58, label %59

58:                                               ; preds = %49
  store i1 false, ptr %5, align 1
  store i32 1, ptr %17, align 4
  br label %88

59:                                               ; preds = %49
  %60 = load i8, ptr %13, align 1
  %61 = zext i8 %60 to i32
  %62 = add i32 1, %61
  %63 = load i32, ptr %11, align 4
  %64 = add i32 %63, %62
  store i32 %64, ptr %11, align 4
  %65 = load i32, ptr %11, align 4
  %66 = load ptr, ptr %6, align 8
  %67 = call i32 @tvb_captured_length(ptr noundef %66)
  %68 = icmp sge i32 %65, %67
  br i1 %68, label %69, label %70

69:                                               ; preds = %59
  store i1 false, ptr %5, align 1
  store i32 1, ptr %17, align 4
  br label %88

70:                                               ; preds = %59
  %71 = load ptr, ptr %6, align 8
  %72 = load i32, ptr %11, align 4
  %73 = call zeroext i8 @tvb_get_uint8(ptr noundef %71, i32 noundef %72)
  store i8 %73, ptr %14, align 1
  %74 = load i8, ptr %14, align 1
  %75 = zext i8 %74 to i32
  %76 = icmp sgt i32 %75, 20
  br i1 %76, label %77, label %78

77:                                               ; preds = %70
  store i1 false, ptr %5, align 1
  store i32 1, ptr %17, align 4
  br label %88

78:                                               ; preds = %70
  %79 = load ptr, ptr %7, align 8
  %80 = call ptr @find_or_create_conversation(ptr noundef %79)
  store ptr %80, ptr %10, align 8
  %81 = load ptr, ptr %10, align 8
  %82 = load ptr, ptr @quic_handle, align 8
  call void @conversation_set_dissector(ptr noundef %81, ptr noundef %82)
  %83 = load ptr, ptr %6, align 8
  %84 = load ptr, ptr %7, align 8
  %85 = load ptr, ptr %8, align 8
  %86 = load ptr, ptr %9, align 8
  %87 = call i32 @dissect_quic(ptr noundef %83, ptr noundef %84, ptr noundef %85, ptr noundef %86)
  store i1 true, ptr %5, align 1
  store i32 1, ptr %17, align 4
  br label %88

88:                                               ; preds = %78, %77, %69, %58, %48, %30, %21
  call void @llvm.lifetime.end.p0(i64 1, ptr %16) #19
  call void @llvm.lifetime.end.p0(i64 4, ptr %15) #19
  call void @llvm.lifetime.end.p0(i64 1, ptr %14) #19
  call void @llvm.lifetime.end.p0(i64 1, ptr %13) #19
  call void @llvm.lifetime.end.p0(i64 1, ptr %12) #19
  call void @llvm.lifetime.end.p0(i64 4, ptr %11) #19
  call void @llvm.lifetime.end.p0(i64 8, ptr %10) #19
  %89 = load i1, ptr %5, align 1
  ret i1 %89
}