; Function Attrs: null_pointer_is_valid sspstrong uwtable
define internal noundef zeroext i1 @dissect_quic_heur(ptr noundef %0, ptr noundef %1, ptr noundef %2, ptr readnone captures(none) %3) #0 {
  %5 = alloca %struct.quic_cid, align 8
  %6 = alloca i8, align 1
  %7 = tail call i32 @tvb_captured_length(ptr noundef %0)
  %8 = icmp ult i32 %7, 13
  br i1 %8, label %dissect_quic_short_header_heur.exit, label %9

9:                                                ; preds = %4
  %10 = tail call zeroext i8 @tvb_get_uint8(ptr noundef %0, i32 noundef 0)
  %11 = icmp sgt i8 %10, -1
  br i1 %11, label %12, label %37

12:                                               ; preds = %9
  %13 = load i32, ptr @quic_cid_lengths, align 4
  %14 = icmp eq i32 %13, 0
  br i1 %14, label %dissect_quic_short_header_heur.exit, label %15

15:                                               ; preds = %12
  %16 = tail call i32 @tvb_captured_length(ptr noundef %0)
  %17 = icmp ult i32 %16, 19
  br i1 %17, label %dissect_quic_short_header_heur.exit, label %18

18:                                               ; preds = %15
  call void @llvm.lifetime.start.p0(i64 56, ptr nonnull %5) #18
  call void @llvm.memset.p0.i64(ptr noundef nonnull align 8 dereferenceable(56) %5, i8 0, i64 56, i1 false)
  %19 = tail call i32 @tvb_captured_length(ptr noundef %0)
  %20 = add i32 %19, -39
  %21 = icmp ult i32 %20, -21
  br i1 %21, label %26, label %22

22:                                               ; preds = %18
  %23 = tail call i32 @tvb_captured_length(ptr noundef %0)
  %24 = trunc i32 %23 to i8
  %25 = add i8 %24, -18
  br label %26

26:                                               ; preds = %22, %18
  %27 = phi i8 [ %25, %22 ], [ 20, %18 ]
  store i8 %27, ptr %5, align 8
  %28 = getelementptr inbounds nuw i8, ptr %5, i64 1
  %29 = zext i8 %27 to i64
  %30 = call ptr @tvb_memcpy(ptr noundef %0, ptr noundef nonnull %28, i32 noundef 1, i64 noundef %29)
  call void @llvm.lifetime.start.p0(i64 1, ptr nonnull %6) #18
  %31 = call fastcc ptr @quic_connection_find(ptr noundef %1, i8 noundef zeroext -1, ptr noundef nonnull %5, ptr noundef nonnull %6)
  %.not.i = icmp ne ptr %31, null
  br i1 %.not.i, label %32, label %36

32:                                               ; preds = %26
  %33 = call ptr @find_or_create_conversation(ptr noundef %1)
  %34 = load ptr, ptr @quic_handle, align 8
  call void @conversation_set_dissector(ptr noundef %33, ptr noundef %34)
  %35 = call i32 @dissect_quic(ptr noundef %0, ptr noundef %1, ptr noundef %2, ptr poison)
  br label %36

36:                                               ; preds = %32, %26
  call void @llvm.lifetime.end.p0(i64 1, ptr nonnull %6) #18
  call void @llvm.lifetime.end.p0(i64 56, ptr nonnull %5) #18
  br label %dissect_quic_short_header_heur.exit

37:                                               ; preds = %9
  %38 = tail call i32 @tvb_get_ntohl(ptr noundef %0, i32 noundef 1)
  %.mask.i = and i32 %38, -256
  %39 = icmp eq i32 %.mask.i, -16777216
  br i1 %39, label %40, label %43

40:                                               ; preds = %37
  %41 = trunc i32 %38 to i8
  %42 = icmp ugt i8 %41, 10
  br i1 %42, label %quic_draft_version.exit.thread, label %dissect_quic_short_header_heur.exit

43:                                               ; preds = %37
  switch i32 %38, label %44 [
    i32 -87117823, label %quic_draft_version.exit.thread
    i32 -87117810, label %quic_draft_version.exit.thread
    i32 -87117822, label %quic_draft_version.exit.thread
    i32 1412445489, label %quic_draft_version.exit.thread
    i32 1412445488, label %quic_draft_version.exit.thread
    i32 1362113840, label %quic_draft_version.exit.thread
  ]

44:                                               ; preds = %43
  %45 = and i32 %38, 252645135
  %46 = icmp eq i32 %45, 168430090
  br i1 %46, label %quic_draft_version.exit.thread, label %switch.early.test

switch.early.test:                                ; preds = %44
  switch i32 %38, label %dissect_quic_short_header_heur.exit [
    i32 1798521807, label %quic_draft_version.exit.thread
    i32 1, label %quic_draft_version.exit.thread
  ]

quic_draft_version.exit.thread:                   ; preds = %switch.early.test, %switch.early.test, %44, %40, %43, %43, %43, %43, %43, %43
  %47 = tail call zeroext i8 @tvb_get_uint8(ptr noundef %0, i32 noundef 5)
  %48 = icmp ugt i8 %47, 20
  br i1 %48, label %dissect_quic_short_header_heur.exit, label %49

49:                                               ; preds = %quic_draft_version.exit.thread
  %narrow = add nuw nsw i8 %47, 6
  %50 = zext nneg i8 %narrow to i32
  %51 = tail call i32 @tvb_captured_length(ptr noundef %0)
  %.not = icmp sgt i32 %51, %50
  br i1 %.not, label %52, label %dissect_quic_short_header_heur.exit

52:                                               ; preds = %49
  %53 = tail call zeroext i8 @tvb_get_uint8(ptr noundef %0, i32 noundef %50)
  %54 = icmp ugt i8 %53, 20
  br i1 %54, label %dissect_quic_short_header_heur.exit, label %55

55:                                               ; preds = %52
  %56 = tail call ptr @find_or_create_conversation(ptr noundef %1)
  %57 = load ptr, ptr @quic_handle, align 8
  tail call void @conversation_set_dissector(ptr noundef %56, ptr noundef %57)
  %58 = tail call i32 @dissect_quic(ptr noundef %0, ptr noundef %1, ptr noundef %2, ptr poison)
  br label %dissect_quic_short_header_heur.exit

dissect_quic_short_header_heur.exit:              ; preds = %switch.early.test, %40, %36, %15, %12, %52, %49, %quic_draft_version.exit.thread, %4, %55
  %.0 = phi i1 [ true, %55 ], [ false, %4 ], [ false, %quic_draft_version.exit.thread ], [ false, %49 ], [ false, %52 ], [ %.not.i, %36 ], [ false, %12 ], [ false, %15 ], [ false, %40 ], [ false, %switch.early.test ]
  ret i1 %.0
}